target datalayout = "e-m:e-p270:32:32-p271:32:32-p272:64:64-i64:64-i128:128-f80:128-n8:16:32:64-S128"
target triple = "x86_64-pc-linux-gnu"

%struct._Unwind_Exception = type { i64, ptr, i64, i64 }

@stderr = external global ptr, align 8
@.str.8 = private unnamed_addr constant [47 x i8] c"libunwind: _Unwind_DeleteException(ex_obj=%p)\0A\00", align 1

; Function Attrs: uwtable
define dso_local void @_Unwind_DeleteException(ptr noundef %0) #0 {
  %2 = alloca ptr, align 8
  store ptr %0, ptr %2, align 8, !tbaa !4
  br label %3

3:                                                ; preds = %1
  %4 = call zeroext i1 @logAPIs()
  br i1 %4, label %5, label %13

5:                                                ; preds = %3
  br label %6

6:                                                ; preds = %5
  %7 = load ptr, ptr @stderr, align 8, !tbaa !9
  %8 = load ptr, ptr %2, align 8, !tbaa !4
  %9 = call i32 (ptr, ptr, ...) @fprintf(ptr noundef %7, ptr noundef @.str.8, ptr noundef %8) #5
  %10 = load ptr, ptr @stderr, align 8, !tbaa !9
  %11 = call i32 @fflush(ptr noundef %10)
  br label %12

12:                                               ; preds = %6
  br label %13

13:                                               ; preds = %12, %3
  br label %14

14:                                               ; preds = %13
  %15 = load ptr, ptr %2, align 8, !tbaa !4
  %16 = getelementptr inbounds nuw %struct._Unwind_Exception, ptr %15, i32 0, i32 1
  %17 = load ptr, ptr %16, align 8, !tbaa !34
  %18 = icmp ne ptr %17, null
  br i1 %18, label %19, label %24

19:                                               ; preds = %14
  %20 = load ptr, ptr %2, align 8, !tbaa !4
  %21 = getelementptr inbounds nuw %struct._Unwind_Exception, ptr %20, i32 0, i32 1
  %22 = load ptr, ptr %21, align 8, !tbaa !34
  %23 = load ptr, ptr %2, align 8, !tbaa !4
  call void %22(i32 noundef 1, ptr noundef %23)
  br label %24

24:                                               ; preds = %19, %14
  ret void
}