; Function Attrs: uwtable
define dso_local void @_Unwind_DeleteException(ptr noundef %0) local_unnamed_addr #0 {
  %2 = tail call zeroext i1 @logAPIs()
  br i1 %2, label %3, label %8

3:                                                ; preds = %1
  %4 = load ptr, ptr @stderr, align 8, !tbaa !4
  %5 = tail call i32 (ptr, ptr, ...) @fprintf(ptr noundef %4, ptr noundef nonnull @.str.8, ptr noundef %0) #7
  %6 = load ptr, ptr @stderr, align 8, !tbaa !4
  %7 = tail call i32 @fflush(ptr noundef %6)
  br label %8

8:                                                ; preds = %1, %3
  %9 = getelementptr inbounds nuw i8, ptr %0, i64 8
  %10 = load ptr, ptr %9, align 8, !tbaa !22
  %.not = icmp eq ptr %10, null
  br i1 %.not, label %12, label %11

11:                                               ; preds = %8
  tail call void %10(i32 noundef 1, ptr noundef nonnull %0)
  br label %12

12:                                               ; preds = %11, %8
  ret void
}